target datalayout = "e-m:e-p270:32:32-p271:32:32-p272:64:64-i64:64-i128:128-f80:128-n8:16:32:64-S128"
target triple = "x86_64-pc-linux-gnu"

%"class.cv::Point_" = type { i32, i32 }
%"class.cv::utils::trace::details::Region" = type <{ ptr, i32, [4 x i8] }>

; Function Attrs: mustprogress uwtable
define void @_ZN2cv19findContours_legacyERKNS_11_InputArrayERKNS_12_OutputArrayEiiNS_6Point_IiEE(ptr noundef nonnull align 8 dereferenceable(24) %0, ptr noundef nonnull align 8 dereferenceable(24) %1, i32 noundef %2, i32 noundef %3, i64 %4) #0 personality ptr @__gxx_personality_v0 {
  %6 = alloca %"class.cv::Point_", align 4
  %7 = alloca ptr, align 8
  %8 = alloca ptr, align 8
  %9 = alloca i32, align 4
  %10 = alloca i32, align 4
  %11 = alloca %"class.cv::utils::trace::details::Region", align 8
  %12 = alloca ptr, align 8
  %13 = alloca i32, align 4
  %14 = alloca %"class.cv::Point_", align 4
  store i64 %4, ptr %6, align 4
  store ptr %0, ptr %7, align 8, !tbaa !157
  store ptr %1, ptr %8, align 8, !tbaa !159
  store i32 %2, ptr %9, align 4, !tbaa !20
  store i32 %3, ptr %10, align 4, !tbaa !20
  call void @llvm.lifetime.start.p0(i64 16, ptr %11) #18
  call void @_ZN2cv5utils5trace7details6RegionC1ERKNS3_21LocationStaticStorageE(ptr noundef nonnull align 8 dereferenceable(12) %11, ptr noundef nonnull align 8 dereferenceable(32) @_ZZN2cv19findContours_legacyERKNS_11_InputArrayERKNS_12_OutputArrayEiiNS_6Point_IiEEE26__cv_trace_location_fn1885)
  %15 = load ptr, ptr %7, align 8, !tbaa !157
  %16 = load ptr, ptr %8, align 8, !tbaa !159
  %17 = invoke noundef nonnull align 8 dereferenceable(24) ptr @_ZN2cv7noArrayEv()
          to label %18 unwind label %23

18:                                               ; preds = %5
  %19 = load i32, ptr %9, align 4, !tbaa !20
  %20 = load i32, ptr %10, align 4, !tbaa !20
  call void @llvm.memcpy.p0.p0.i64(ptr align 4 %14, ptr align 4 %6, i64 8, i1 false), !tbaa.struct !19
  %21 = load i64, ptr %14, align 4
  invoke void @_ZN2cv19findContours_legacyERKNS_11_InputArrayERKNS_12_OutputArrayES5_iiNS_6Point_IiEE(ptr noundef nonnull align 8 dereferenceable(24) %15, ptr noundef nonnull align 8 dereferenceable(24) %16, ptr noundef nonnull align 8 dereferenceable(24) %17, i32 noundef %19, i32 noundef %20, i64 %21)
          to label %22 unwind label %23

22:                                               ; preds = %18
  call void @_ZN2cv5utils5trace7details6RegionD2Ev(ptr noundef nonnull align 8 dereferenceable(12) %11) #18
  call void @llvm.lifetime.end.p0(i64 16, ptr %11) #18
  ret void

23:                                               ; preds = %18, %5
  %24 = landingpad { ptr, i32 }
          cleanup
  %25 = extractvalue { ptr, i32 } %24, 0
  store ptr %25, ptr %12, align 8
  %26 = extractvalue { ptr, i32 } %24, 1
  store i32 %26, ptr %13, align 4
  call void @_ZN2cv5utils5trace7details6RegionD2Ev(ptr noundef nonnull align 8 dereferenceable(12) %11) #18
  call void @llvm.lifetime.end.p0(i64 16, ptr %11) #18
  br label %27

27:                                               ; preds = %23
  %28 = load ptr, ptr %12, align 8
  %29 = load i32, ptr %13, align 4
  %30 = insertvalue { ptr, i32 } poison, ptr %28, 0
  %31 = insertvalue { ptr, i32 } %30, i32 %29, 1
  resume { ptr, i32 } %31
}